; Function Attrs: nounwind sspstrong uwtable
define internal fastcc i64 @str2num(ptr noundef %0) unnamed_addr #0 {
  %2 = tail call ptr @strchr(ptr noundef nonnull dereferenceable(1) %0, i32 noundef 47) #19
  %.not = icmp eq ptr %2, null
  br i1 %.not, label %5, label %3

3:                                                ; preds = %1
  %4 = tail call i64 @rb_cstr_to_rat(ptr noundef nonnull %0, i32 noundef 0) #17
  br label %rb_float_new_inline.exit

5:                                                ; preds = %1
  %6 = tail call ptr @strpbrk(ptr noundef nonnull %0, ptr noundef nonnull @.str.70) #19
  %.not5 = icmp eq ptr %6, null
  br i1 %.not5, label %23, label %7

7:                                                ; preds = %5
  %8 = tail call double @rb_cstr_to_dbl(ptr noundef nonnull %0, i32 noundef 0) #17
  %9 = bitcast double %8 to i64
  %cond.i = icmp eq i64 %9, 3458764513820540928
  br i1 %cond.i, label %21, label %10

10:                                               ; preds = %7
  %11 = lshr i64 %9, 60
  %12 = trunc nuw nsw i64 %11 to i32
  %13 = and i32 %12, 7
  %14 = add nsw i32 %13, -3
  %.not7.i = icmp ult i32 %14, 2
  br i1 %.not7.i, label %15, label %19

15:                                               ; preds = %10
  %16 = tail call noundef i64 @llvm.fshl.i64(i64 range(i64 3458764513820540929, 3458764513820540928) %9, i64 range(i64 3458764513820540929, 3458764513820540928) %9, i64 3)
  %17 = and i64 %16, -4
  %18 = or disjoint i64 %17, 2
  br label %rb_float_new_inline.exit

19:                                               ; preds = %10
  %20 = icmp eq i64 %9, 0
  br i1 %20, label %rb_float_new_inline.exit, label %21

21:                                               ; preds = %19, %7
  %22 = tail call i64 @rb_float_new_in_heap(double noundef %8) #17
  br label %rb_float_new_inline.exit

23:                                               ; preds = %5
  %24 = tail call i64 @rb_cstr_to_inum(ptr noundef nonnull %0, i32 noundef 10, i32 noundef 0) #17
  br label %rb_float_new_inline.exit

rb_float_new_inline.exit:                         ; preds = %21, %19, %15, %23, %3
  %.0 = phi i64 [ %4, %3 ], [ %24, %23 ], [ %22, %21 ], [ %18, %15 ], [ -9223372036854775806, %19 ]
  ret i64 %.0
}